; Function Attrs: mustprogress nofree norecurse nosync nounwind willreturn memory(read, inaccessiblemem: none) uwtable
define dso_local noundef ptr @_ZNK4llvm16AArch64InstrInfo18getBranchDestBlockERKNS_12MachineInstrE(ptr nocapture nonnull readnone align 8 %0, ptr nocapture noundef nonnull readonly align 8 dereferenceable(70) %1) unnamed_addr #4 align 2 {
  %3 = getelementptr inbounds nuw i8, ptr %1, i64 68
  %4 = load i16, ptr %3, align 4
  switch i16 %4, label %5 [
    i16 1612, label %8
    i16 7015, label %6
    i16 6997, label %6
    i16 7016, label %6
    i16 6998, label %6
    i16 1833, label %7
    i16 1831, label %7
    i16 1834, label %7
    i16 1832, label %7
    i16 1802, label %7
  ]

5:                                                ; preds = %2
  unreachable

6:                                                ; preds = %2, %2, %2, %2
  br label %8

7:                                                ; preds = %2, %2, %2, %2, %2
  br label %8

8:                                                ; preds = %2, %7, %6
  %.sink5 = phi i64 [ 48, %7 ], [ 80, %6 ], [ 16, %2 ]
  %9 = getelementptr inbounds nuw i8, ptr %1, i64 32
  %10 = load ptr, ptr %9, align 8
  %11 = getelementptr inbounds i8, ptr %10, i64 %.sink5
  %.0 = load ptr, ptr %11, align 8
  ret ptr %.0
}